; ModuleID = '10/1937.c'
source_filename = "10/1937.c"
target datalayout = "e-m:e-p270:32:32-p271:32:32-p272:64:64-i64:64-f80:128-n8:16:32:64-S128"
target triple = "x86_64-pc-linux-gnu"

@.str = private unnamed_addr constant [3 x i8] c"%d\00", align 1

; Function Attrs: noinline nounwind uwtable
define dso_local i32 @main() #0 {
  %1 = alloca i32, align 4
  %2 = alloca i32, align 4
  %3 = alloca [100 x i32], align 16
  %4 = alloca i32, align 4
  %5 = alloca [100 x i32], align 16
  %6 = alloca i32, align 4
  %7 = alloca i32, align 4
  store i32 0, i32* %1, align 4
  %8 = call i32 (i8*, ...) @__isoc99_scanf(i8* getelementptr inbounds ([3 x i8], [3 x i8]* @.str, i64 0, i64 0), i32* %2)
  store i32 0, i32* %4, align 4
  br label %9

9:                                                ; preds = %18, %0
  %10 = load i32, i32* %4, align 4
  %11 = load i32, i32* %2, align 4
  %12 = icmp slt i32 %10, %11
  br i1 %12, label %13, label %21

13:                                               ; preds = %9
  %14 = load i32, i32* %4, align 4
  %15 = sext i32 %14 to i64
  %16 = getelementptr inbounds [100 x i32], [100 x i32]* %3, i64 0, i64 %15
  %17 = call i32 (i8*, ...) @__isoc99_scanf(i8* getelementptr inbounds ([3 x i8], [3 x i8]* @.str, i64 0, i64 0), i32* %16)
  br label %18

18:                                               ; preds = %13
  %19 = load i32, i32* %4, align 4
  %20 = add nsw i32 %19, 1
  store i32 %20, i32* %4, align 4
  br label %9

21:                                               ; preds = %9
  %22 = bitcast [100 x i32]* %5 to i8*
  call void @llvm.memset.p0i8.i64(i8* align 16 %22, i8 0, i64 400, i1 false)
  %23 = load i32, i32* %2, align 4
  %24 = sub nsw i32 %23, 2
  store i32 %24, i32* %4, align 4
  br label %25

25:                                               ; preds = %75, %21
  %26 = load i32, i32* %4, align 4
  %27 = icmp sge i32 %26, 0
  br i1 %27, label %28, label %78

28:                                               ; preds = %25
  %29 = load i32, i32* %4, align 4
  store i32 %29, i32* %6, align 4
  %30 = load i32, i32* %4, align 4
  store i32 %30, i32* %7, align 4
  br label %31

31:                                               ; preds = %58, %28
  %32 = load i32, i32* %6, align 4
  %33 = load i32, i32* %2, align 4
  %34 = icmp slt i32 %32, %33
  br i1 %34, label %35, label %61

35:                                               ; preds = %31
  %36 = load i32, i32* %6, align 4
  %37 = sext i32 %36 to i64
  %38 = getelementptr inbounds [100 x i32], [100 x i32]* %3, i64 0, i64 %37
  %39 = load i32, i32* %38, align 4
  %40 = load i32, i32* %4, align 4
  %41 = sext i32 %40 to i64
  %42 = getelementptr inbounds [100 x i32], [100 x i32]* %3, i64 0, i64 %41
  %43 = load i32, i32* %42, align 4
  %44 = icmp sle i32 %39, %43
  br i1 %44, label %45, label %57

45:                                               ; preds = %35
  %46 = load i32, i32* %7, align 4
  %47 = sext i32 %46 to i64
  %48 = getelementptr inbounds [100 x i32], [100 x i32]* %5, i64 0, i64 %47
  %49 = load i32, i32* %48, align 4
  %50 = load i32, i32* %6, align 4
  %51 = sext i32 %50 to i64
  %52 = getelementptr inbounds [100 x i32], [100 x i32]* %5, i64 0, i64 %51
  %53 = load i32, i32* %52, align 4
  %54 = icmp sle i32 %49, %53
  br i1 %54, label %55, label %57

55:                                               ; preds = %45
  %56 = load i32, i32* %6, align 4
  store i32 %56, i32* %7, align 4
  br label %57

57:                                               ; preds = %55, %45, %35
  br label %58

58:                                               ; preds = %57
  %59 = load i32, i32* %6, align 4
  %60 = add nsw i32 %59, 1
  store i32 %60, i32* %6, align 4
  br label %31

61:                                               ; preds = %31
  %62 = load i32, i32* %7, align 4
  %63 = load i32, i32* %4, align 4
  %64 = icmp ne i32 %62, %63
  br i1 %64, label %65, label %74

65:                                               ; preds = %61
  %66 = load i32, i32* %7, align 4
  %67 = sext i32 %66 to i64
  %68 = getelementptr inbounds [100 x i32], [100 x i32]* %5, i64 0, i64 %67
  %69 = load i32, i32* %68, align 4
  %70 = add nsw i32 %69, 1
  %71 = load i32, i32* %4, align 4
  %72 = sext i32 %71 to i64
  %73 = getelementptr inbounds [100 x i32], [100 x i32]* %5, i64 0, i64 %72
  store i32 %70, i32* %73, align 4
  br label %74

74:                                               ; preds = %65, %61
  br label %75

75:                                               ; preds = %74
  %76 = load i32, i32* %4, align 4
  %77 = add nsw i32 %76, -1
  store i32 %77, i32* %4, align 4
  br label %25

78:                                               ; preds = %25
  store i32 0, i32* %4, align 4
  store i32 0, i32* %7, align 4
  br label %79

79:                                               ; preds = %96, %78
  %80 = load i32, i32* %4, align 4
  %81 = load i32, i32* %2, align 4
  %82 = icmp slt i32 %80, %81
  br i1 %82, label %83, label %99

83:                                               ; preds = %79
  %84 = load i32, i32* %7, align 4
  %85 = sext i32 %84 to i64
  %86 = getelementptr inbounds [100 x i32], [100 x i32]* %5, i64 0, i64 %85
  %87 = load i32, i32* %86, align 4
  %88 = load i32, i32* %4, align 4
  %89 = sext i32 %88 to i64
  %90 = getelementptr inbounds [100 x i32], [100 x i32]* %5, i64 0, i64 %89
  %91 = load i32, i32* %90, align 4
  %92 = icmp slt i32 %87, %91
  br i1 %92, label %93, label %95

93:                                               ; preds = %83
  %94 = load i32, i32* %4, align 4
  store i32 %94, i32* %7, align 4
  br label %95

95:                                               ; preds = %93, %83
  br label %96

96:                                               ; preds = %95
  %97 = load i32, i32* %4, align 4
  %98 = add nsw i32 %97, 1
  store i32 %98, i32* %4, align 4
  br label %79

99:                                               ; preds = %79
  %100 = load i32, i32* %7, align 4
  %101 = sext i32 %100 to i64
  %102 = getelementptr inbounds [100 x i32], [100 x i32]* %5, i64 0, i64 %101
  %103 = load i32, i32* %102, align 4
  %104 = add nsw i32 %103, 1
  %105 = call i32 (i8*, ...) @printf(i8* getelementptr inbounds ([3 x i8], [3 x i8]* @.str, i64 0, i64 0), i32 %104)
  ret i32 0
}

declare dso_local i32 @__isoc99_scanf(i8*, ...) #1

; Function Attrs: argmemonly nounwind willreturn
declare void @llvm.memset.p0i8.i64(i8* nocapture writeonly, i8, i64, i1 immarg) #2

declare dso_local i32 @printf(i8*, ...) #1


!llvm.module.flags = !{!0}
!llvm.ident = !{!1}

!0 = !{i32 1, !"wchar_size", i32 4}
!1 = !{!"clang version 10.0.0-4ubuntu1 "}
